target datalayout = "e-m:e-p270:32:32-p271:32:32-p272:64:64-i64:64-i128:128-f80:128-n8:16:32:64-S128"
target triple = "x86_64-pc-linux-gnu"

@ctrlc_pressed = global i8 0, align 1

; Function Attrs: mustprogress nounwind uwtable
define internal void @_ZL13handle_signali(i32 noundef %0) #4 {
  %2 = alloca i32, align 4
  store i32 %0, ptr %2, align 4
  %3 = load volatile i8, ptr @ctrlc_pressed, align 1
  %4 = trunc i8 %3 to i1
  br i1 %4, label %5, label %6

5:                                                ; preds = %1
  call void @exit(i32 noundef -1) #19
  unreachable

6:                                                ; preds = %1
  store volatile i8 1, ptr @ctrlc_pressed, align 1
  %7 = load i32, ptr %2, align 4
  %8 = call ptr @signal(i32 noundef %7, ptr noundef @_ZL13handle_signali) #3
  ret void
}