; Function Attrs: mustprogress nounwind uwtable
define internal void @_ZL13handle_signali(i32 noundef %0) #5 {
  %2 = load volatile i8, ptr @ctrlc_pressed, align 1
  %3 = and i8 %2, 1
  %.not = icmp eq i8 %3, 0
  br i1 %.not, label %5, label %4

4:                                                ; preds = %1
  tail call void @exit(i32 noundef -1) #27
  unreachable

5:                                                ; preds = %1
  store volatile i8 1, ptr @ctrlc_pressed, align 1
  %6 = tail call ptr @signal(i32 noundef %0, ptr noundef nonnull @_ZL13handle_signali) #26
  ret void
}